target datalayout = "e-m:e-p270:32:32-p271:32:32-p272:64:64-i64:64-i128:128-f80:128-n8:16:32:64-S128"
target triple = "x86_64-pc-linux-gnu"

%struct.H5O_storage_virtual_name_seg_t = type { ptr, ptr }

@H5_H5O_storage_virtual_name_seg_t_reg_free_list = global { i8, [3 x i8], i32, i32, [4 x i8], ptr, i64, ptr } { i8 0, [3 x i8] zeroinitializer, i32 0, i32 0, [4 x i8] zeroinitializer, ptr @.str, i64 16, ptr null }, align 8
@H5D_init_g = external global i8, align 1
@H5_libterm_g = external global i8, align 1
@.str.1 = private unnamed_addr constant [104 x i8] c"generated/home/dtcxzyw/WorkSpace/Projects/compilers/llvm-opt-benchmark/bench/hdf5/hdf5/src/H5Dvirtual.c\00", align 1
@H5E_FUNC_g = external global i64, align 8
@H5E_CANTINIT_g = external global i64, align 8
@.str.2 = private unnamed_addr constant [32 x i8] c"interface initialization failed\00", align 1
@H5E_RESOURCE_g = external global i64, align 8
@H5E_CANTALLOC_g = external global i64, align 8
@.str.42 = private unnamed_addr constant [39 x i8] c"unable to allocate name segment struct\00", align 1
@__func__.H5D_virtual_free_parsed_name = private unnamed_addr constant [29 x i8] c"H5D_virtual_free_parsed_name\00", align 1
@__func__.H5D__virtual_copy_parsed_name = private unnamed_addr constant [30 x i8] c"H5D__virtual_copy_parsed_name\00", align 1
@.str.77 = private unnamed_addr constant [33 x i8] c"unable to duplicate name segment\00", align 1

; Function Attrs: nounwind uwtable
define i32 @H5D_virtual_free_parsed_name(ptr noundef %0) #0 {
  %2 = alloca ptr, align 8
  %3 = alloca ptr, align 8
  %4 = alloca i32, align 4
  %5 = alloca i8, align 1
  store ptr %0, ptr %2, align 8, !tbaa !159
  call void @llvm.lifetime.start.p0(i64 8, ptr %3) #10
  call void @llvm.lifetime.start.p0(i64 4, ptr %4) #10
  store i32 0, ptr %4, align 4, !tbaa !12
  call void @llvm.lifetime.start.p0(i64 1, ptr %5) #10
  store i8 0, ptr %5, align 1, !tbaa !14
  %6 = load i8, ptr @H5D_init_g, align 1, !tbaa !14, !range !16, !noundef !17
  %7 = trunc i8 %6 to i1
  br i1 %7, label %12, label %8

8:                                                ; preds = %1
  %9 = load i8, ptr @H5_libterm_g, align 1, !tbaa !14, !range !16, !noundef !17
  %10 = trunc i8 %9 to i1
  %11 = xor i1 %10, true
  br label %12

12:                                               ; preds = %8, %1
  %13 = phi i1 [ false, %1 ], [ %11, %8 ]
  %14 = xor i1 %13, true
  %15 = xor i1 %14, true
  %16 = zext i1 %15 to i32
  %17 = sext i32 %16 to i64
  %18 = call i64 @llvm.expect.i64(i64 %17, i64 0)
  %19 = icmp ne i64 %18, 0
  br i1 %19, label %20, label %43

20:                                               ; preds = %12
  store i8 1, ptr @H5D_init_g, align 1, !tbaa !14
  %21 = call i32 @H5D__init_package()
  %22 = icmp slt i32 %21, 0
  br i1 %22, label %23, label %42

23:                                               ; preds = %20
  store i8 0, ptr @H5D_init_g, align 1, !tbaa !14
  br label %24

24:                                               ; preds = %23
  br label %25

25:                                               ; preds = %24
  br label %26

26:                                               ; preds = %25
  %27 = load i64, ptr @H5E_FUNC_g, align 8, !tbaa !10
  %28 = load i64, ptr @H5E_CANTINIT_g, align 8, !tbaa !10
  %29 = call i32 (ptr, ptr, i32, i64, i64, ptr, ...) @H5E_printf_stack(ptr noundef @.str.1, ptr noundef @__func__.H5D_virtual_free_parsed_name, i32 noundef 1267, i64 noundef %27, i64 noundef %28, ptr noundef @.str.2)
  br label %30

30:                                               ; preds = %26
  br label %31

31:                                               ; preds = %30
  store i8 1, ptr %5, align 1, !tbaa !14
  %32 = load i8, ptr %5, align 1, !tbaa !14, !range !16, !noundef !17
  %33 = trunc i8 %32 to i1
  %34 = zext i1 %33 to i8
  store i8 %34, ptr %5, align 1, !tbaa !14
  br label %35

35:                                               ; preds = %31
  br label %36

36:                                               ; preds = %35
  br label %37

37:                                               ; preds = %36
  store i32 -1, ptr %4, align 4, !tbaa !12
  br label %74

38:                                               ; No predecessors!
  br label %39

39:                                               ; preds = %38
  br label %40

40:                                               ; preds = %39
  br label %41

41:                                               ; preds = %40
  br label %42

42:                                               ; preds = %41, %20
  br label %43

43:                                               ; preds = %42, %12
  %44 = load i8, ptr @H5D_init_g, align 1, !tbaa !14, !range !16, !noundef !17
  %45 = trunc i8 %44 to i1
  br i1 %45, label %50, label %46

46:                                               ; preds = %43
  %47 = load i8, ptr @H5_libterm_g, align 1, !tbaa !14, !range !16, !noundef !17
  %48 = trunc i8 %47 to i1
  %49 = xor i1 %48, true
  br label %50

50:                                               ; preds = %46, %43
  %51 = phi i1 [ true, %43 ], [ %49, %46 ]
  %52 = xor i1 %51, true
  %53 = xor i1 %52, true
  %54 = zext i1 %53 to i32
  %55 = sext i32 %54 to i64
  %56 = call i64 @llvm.expect.i64(i64 %55, i64 1)
  %57 = icmp ne i64 %56, 0
  br i1 %57, label %58, label %75

58:                                               ; preds = %50
  br label %59

59:                                               ; preds = %62, %58
  %60 = load ptr, ptr %2, align 8, !tbaa !159
  %61 = icmp ne ptr %60, null
  br i1 %61, label %62, label %73

62:                                               ; preds = %59
  %63 = load ptr, ptr %2, align 8, !tbaa !159
  %64 = getelementptr inbounds nuw %struct.H5O_storage_virtual_name_seg_t, ptr %63, i32 0, i32 0
  %65 = load ptr, ptr %64, align 8, !tbaa !148
  %66 = call ptr @H5MM_xfree(ptr noundef %65)
  %67 = load ptr, ptr %2, align 8, !tbaa !159
  %68 = getelementptr inbounds nuw %struct.H5O_storage_virtual_name_seg_t, ptr %67, i32 0, i32 1
  %69 = load ptr, ptr %68, align 8, !tbaa !160
  store ptr %69, ptr %3, align 8, !tbaa !159
  %70 = load ptr, ptr %2, align 8, !tbaa !159
  %71 = call ptr @H5FL_reg_free(ptr noundef @H5_H5O_storage_virtual_name_seg_t_reg_free_list, ptr noundef %70)
  %72 = load ptr, ptr %3, align 8, !tbaa !159
  store ptr %72, ptr %2, align 8, !tbaa !159
  br label %59, !llvm.loop !171

73:                                               ; preds = %59
  br label %74

74:                                               ; preds = %73, %37
  br label %75

75:                                               ; preds = %74, %50
  %76 = load i32, ptr %4, align 4, !tbaa !12
  call void @llvm.lifetime.end.p0(i64 1, ptr %5) #10
  call void @llvm.lifetime.end.p0(i64 4, ptr %4) #10
  call void @llvm.lifetime.end.p0(i64 8, ptr %3) #10
  ret i32 %76
}

; Function Attrs: nounwind uwtable
define internal i32 @H5D__virtual_copy_parsed_name(ptr noundef %0, ptr noundef %1) #0 {
  %3 = alloca ptr, align 8
  %4 = alloca ptr, align 8
  %5 = alloca ptr, align 8
  %6 = alloca ptr, align 8
  %7 = alloca ptr, align 8
  %8 = alloca i32, align 4
  %9 = alloca i8, align 1
  store ptr %0, ptr %3, align 8, !tbaa !157
  store ptr %1, ptr %4, align 8, !tbaa !159
  call void @llvm.lifetime.start.p0(i64 8, ptr %5) #10
  store ptr null, ptr %5, align 8, !tbaa !159
  call void @llvm.lifetime.start.p0(i64 8, ptr %6) #10
  %10 = load ptr, ptr %4, align 8, !tbaa !159
  store ptr %10, ptr %6, align 8, !tbaa !159
  call void @llvm.lifetime.start.p0(i64 8, ptr %7) #10
  store ptr %5, ptr %7, align 8, !tbaa !157
  call void @llvm.lifetime.start.p0(i64 4, ptr %8) #10
  store i32 0, ptr %8, align 4, !tbaa !12
  call void @llvm.lifetime.start.p0(i64 1, ptr %9) #10
  store i8 0, ptr %9, align 1, !tbaa !14
  %11 = load i8, ptr @H5D_init_g, align 1, !tbaa !14, !range !16, !noundef !17
  %12 = trunc i8 %11 to i1
  br i1 %12, label %17, label %13

13:                                               ; preds = %2
  %14 = load i8, ptr @H5_libterm_g, align 1, !tbaa !14, !range !16, !noundef !17
  %15 = trunc i8 %14 to i1
  %16 = xor i1 %15, true
  br label %17

17:                                               ; preds = %13, %2
  %18 = phi i1 [ true, %2 ], [ %16, %13 ]
  %19 = xor i1 %18, true
  %20 = xor i1 %19, true
  %21 = zext i1 %20 to i32
  %22 = sext i32 %21 to i64
  %23 = call i64 @llvm.expect.i64(i64 %22, i64 1)
  %24 = icmp ne i64 %23, 0
  br i1 %24, label %25, label %103

25:                                               ; preds = %17
  br label %26

26:                                               ; preds = %86, %25
  %27 = load ptr, ptr %6, align 8, !tbaa !159
  %28 = icmp ne ptr %27, null
  br i1 %28, label %29, label %93

29:                                               ; preds = %26
  %30 = call noalias ptr @H5FL_reg_calloc(ptr noundef @H5_H5O_storage_virtual_name_seg_t_reg_free_list)
  %31 = load ptr, ptr %7, align 8, !tbaa !157
  store ptr %30, ptr %31, align 8, !tbaa !159
  %32 = icmp eq ptr null, %30
  br i1 %32, label %33, label %52

33:                                               ; preds = %29
  br label %34

34:                                               ; preds = %33
  br label %35

35:                                               ; preds = %34
  br label %36

36:                                               ; preds = %35
  %37 = load i64, ptr @H5E_RESOURCE_g, align 8, !tbaa !10
  %38 = load i64, ptr @H5E_CANTALLOC_g, align 8, !tbaa !10
  %39 = call i32 (ptr, ptr, i32, i64, i64, ptr, ...) @H5E_printf_stack(ptr noundef @.str.1, ptr noundef @__func__.H5D__virtual_copy_parsed_name, i32 noundef 1226, i64 noundef %37, i64 noundef %38, ptr noundef @.str.42)
  br label %40

40:                                               ; preds = %36
  br label %41

41:                                               ; preds = %40
  store i8 1, ptr %9, align 1, !tbaa !14
  %42 = load i8, ptr %9, align 1, !tbaa !14, !range !16, !noundef !17
  %43 = trunc i8 %42 to i1
  %44 = zext i1 %43 to i8
  store i8 %44, ptr %9, align 1, !tbaa !14
  br label %45

45:                                               ; preds = %41
  br label %46

46:                                               ; preds = %45
  br label %47

47:                                               ; preds = %46
  store i32 -1, ptr %8, align 4, !tbaa !12
  br label %96

48:                                               ; No predecessors!
  br label %49

49:                                               ; preds = %48
  br label %50

50:                                               ; preds = %49
  br label %51

51:                                               ; preds = %50
  br label %52

52:                                               ; preds = %51, %29
  %53 = load ptr, ptr %6, align 8, !tbaa !159
  %54 = getelementptr inbounds nuw %struct.H5O_storage_virtual_name_seg_t, ptr %53, i32 0, i32 0
  %55 = load ptr, ptr %54, align 8, !tbaa !148
  %56 = icmp ne ptr %55, null
  br i1 %56, label %57, label %86

57:                                               ; preds = %52
  %58 = load ptr, ptr %6, align 8, !tbaa !159
  %59 = getelementptr inbounds nuw %struct.H5O_storage_virtual_name_seg_t, ptr %58, i32 0, i32 0
  %60 = load ptr, ptr %59, align 8, !tbaa !148
  %61 = call noalias ptr @H5MM_strdup(ptr noundef %60)
  %62 = load ptr, ptr %7, align 8, !tbaa !157
  %63 = load ptr, ptr %62, align 8, !tbaa !159
  %64 = getelementptr inbounds nuw %struct.H5O_storage_virtual_name_seg_t, ptr %63, i32 0, i32 0
  store ptr %61, ptr %64, align 8, !tbaa !148
  %65 = icmp eq ptr null, %61
  br i1 %65, label %66, label %85

66:                                               ; preds = %57
  br label %67

67:                                               ; preds = %66
  br label %68

68:                                               ; preds = %67
  br label %69

69:                                               ; preds = %68
  %70 = load i64, ptr @H5E_RESOURCE_g, align 8, !tbaa !10
  %71 = load i64, ptr @H5E_CANTALLOC_g, align 8, !tbaa !10
  %72 = call i32 (ptr, ptr, i32, i64, i64, ptr, ...) @H5E_printf_stack(ptr noundef @.str.1, ptr noundef @__func__.H5D__virtual_copy_parsed_name, i32 noundef 1231, i64 noundef %70, i64 noundef %71, ptr noundef @.str.77)
  br label %73

73:                                               ; preds = %69
  br label %74

74:                                               ; preds = %73
  store i8 1, ptr %9, align 1, !tbaa !14
  %75 = load i8, ptr %9, align 1, !tbaa !14, !range !16, !noundef !17
  %76 = trunc i8 %75 to i1
  %77 = zext i1 %76 to i8
  store i8 %77, ptr %9, align 1, !tbaa !14
  br label %78

78:                                               ; preds = %74
  br label %79

79:                                               ; preds = %78
  br label %80

80:                                               ; preds = %79
  store i32 -1, ptr %8, align 4, !tbaa !12
  br label %96

81:                                               ; No predecessors!
  br label %82

82:                                               ; preds = %81
  br label %83

83:                                               ; preds = %82
  br label %84

84:                                               ; preds = %83
  br label %85

85:                                               ; preds = %84, %57
  br label %86

86:                                               ; preds = %85, %52
  %87 = load ptr, ptr %6, align 8, !tbaa !159
  %88 = getelementptr inbounds nuw %struct.H5O_storage_virtual_name_seg_t, ptr %87, i32 0, i32 1
  %89 = load ptr, ptr %88, align 8, !tbaa !160
  store ptr %89, ptr %6, align 8, !tbaa !159
  %90 = load ptr, ptr %7, align 8, !tbaa !157
  %91 = load ptr, ptr %90, align 8, !tbaa !159
  %92 = getelementptr inbounds nuw %struct.H5O_storage_virtual_name_seg_t, ptr %91, i32 0, i32 1
  store ptr %92, ptr %7, align 8, !tbaa !157
  br label %26, !llvm.loop !161

93:                                               ; preds = %26
  %94 = load ptr, ptr %5, align 8, !tbaa !159
  %95 = load ptr, ptr %3, align 8, !tbaa !157
  store ptr %94, ptr %95, align 8, !tbaa !159
  store ptr null, ptr %5, align 8, !tbaa !159
  br label %96

96:                                               ; preds = %93, %80, %47
  %97 = load ptr, ptr %5, align 8, !tbaa !159
  %98 = icmp ne ptr %97, null
  br i1 %98, label %99, label %102

99:                                               ; preds = %96
  %100 = load ptr, ptr %5, align 8, !tbaa !159
  %101 = call i32 @H5D_virtual_free_parsed_name(ptr noundef %100)
  br label %102

102:                                              ; preds = %99, %96
  br label %103

103:                                              ; preds = %102, %17
  %104 = load i32, ptr %8, align 4, !tbaa !12
  call void @llvm.lifetime.end.p0(i64 1, ptr %9) #10
  call void @llvm.lifetime.end.p0(i64 4, ptr %8) #10
  call void @llvm.lifetime.end.p0(i64 8, ptr %7) #10
  call void @llvm.lifetime.end.p0(i64 8, ptr %6) #10
  call void @llvm.lifetime.end.p0(i64 8, ptr %5) #10
  ret i32 %104
}