; Function Attrs: nounwind uwtable
define internal fastcc range(i32 -1, 1) i32 @H5D__virtual_copy_parsed_name(ptr noundef writeonly captures(none) %0, ptr noundef readonly captures(address_is_null) %1) unnamed_addr #0 {
  %3 = alloca ptr, align 8
  call void @llvm.lifetime.start.p0(i64 8, ptr nonnull %3)
  store ptr null, ptr %3, align 8, !tbaa !141
  %4 = load i8, ptr @H5D_init_g, align 1, !tbaa !3, !range !7, !noundef !8
  %5 = trunc nuw i8 %4 to i1
  %6 = load i8, ptr @H5_libterm_g, align 1, !range !7
  %7 = trunc nuw i8 %6 to i1
  %8 = xor i1 %7, true
  %9 = select i1 %5, i1 true, i1 %8
  br i1 %9, label %.preheader, label %H5D_virtual_free_parsed_name.exit, !prof !9

.preheader:                                       ; preds = %2
  %.not21 = icmp eq ptr %1, null
  br i1 %.not21, label %.thread, label %.lr.ph

.lr.ph:                                           ; preds = %.preheader, %26
  %.01123 = phi ptr [ %30, %26 ], [ %3, %.preheader ]
  %.01222 = phi ptr [ %29, %26 ], [ %1, %.preheader ]
  %10 = tail call noalias ptr @H5FL_reg_calloc(ptr noundef nonnull @H5_H5O_storage_virtual_name_seg_t_reg_free_list) #14
  store ptr %10, ptr %.01123, align 8, !tbaa !141
  %11 = icmp eq ptr %10, null
  br i1 %11, label %12, label %16

12:                                               ; preds = %.lr.ph
  %13 = load i64, ptr @H5E_RESOURCE_g, align 8, !tbaa !24
  %14 = load i64, ptr @H5E_CANTALLOC_g, align 8, !tbaa !24
  %15 = tail call i32 (ptr, ptr, i32, i64, i64, ptr, ...) @H5E_printf_stack(ptr noundef nonnull @.str.1, ptr noundef nonnull @__func__.H5D__virtual_copy_parsed_name, i32 noundef 1226, i64 noundef %13, i64 noundef %14, ptr noundef nonnull @.str.42) #14
  br label %31

16:                                               ; preds = %.lr.ph
  %17 = load ptr, ptr %.01222, align 8, !tbaa !132
  %.not16 = icmp eq ptr %17, null
  br i1 %.not16, label %26, label %18

18:                                               ; preds = %16
  %19 = tail call noalias ptr @H5MM_strdup(ptr noundef nonnull %17) #14
  %20 = load ptr, ptr %.01123, align 8, !tbaa !141
  store ptr %19, ptr %20, align 8, !tbaa !132
  %21 = icmp eq ptr %19, null
  br i1 %21, label %22, label %26

22:                                               ; preds = %18
  %23 = load i64, ptr @H5E_RESOURCE_g, align 8, !tbaa !24
  %24 = load i64, ptr @H5E_CANTALLOC_g, align 8, !tbaa !24
  %25 = tail call i32 (ptr, ptr, i32, i64, i64, ptr, ...) @H5E_printf_stack(ptr noundef nonnull @.str.1, ptr noundef nonnull @__func__.H5D__virtual_copy_parsed_name, i32 noundef 1231, i64 noundef %23, i64 noundef %24, ptr noundef nonnull @.str.77) #14
  br label %31

26:                                               ; preds = %18, %16
  %27 = phi ptr [ %20, %18 ], [ %10, %16 ]
  %28 = getelementptr inbounds nuw i8, ptr %.01222, i64 8
  %29 = load ptr, ptr %28, align 8, !tbaa !142
  %30 = getelementptr inbounds nuw i8, ptr %27, i64 8
  %.not = icmp eq ptr %29, null
  br i1 %.not, label %.thread.loopexit, label %.lr.ph, !llvm.loop !143

.thread.loopexit:                                 ; preds = %26
  %.0..0..0..0..pre = load ptr, ptr %3, align 8, !tbaa !141
  br label %.thread

.thread:                                          ; preds = %.thread.loopexit, %.preheader
  %.0..0..0. = phi ptr [ %.0..0..0..0..pre, %.thread.loopexit ], [ null, %.preheader ]
  store ptr %.0..0..0., ptr %0, align 8, !tbaa !141
  br label %H5D_virtual_free_parsed_name.exit

31:                                               ; preds = %22, %12
  %.0..0..0..0.13.pr = load ptr, ptr %3, align 8, !tbaa !141
  %.not17 = icmp eq ptr %.0..0..0..0.13.pr, null
  br i1 %.not17, label %H5D_virtual_free_parsed_name.exit, label %32

32:                                               ; preds = %31
  %33 = load i8, ptr @H5D_init_g, align 1, !tbaa !3, !range !7, !noundef !8
  %34 = trunc nuw i8 %33 to i1
  %35 = load i8, ptr @H5_libterm_g, align 1, !range !7
  %36 = trunc nuw i8 %35 to i1
  %37 = select i1 %34, i1 true, i1 %36
  br i1 %37, label %45, label %38, !prof !9

38:                                               ; preds = %32
  store i8 1, ptr @H5D_init_g, align 1, !tbaa !3
  %39 = tail call i32 @H5D__init_package() #14
  %40 = icmp slt i32 %39, 0
  br i1 %40, label %41, label %._crit_edge.i

._crit_edge.i:                                    ; preds = %38
  %.pre.i = load i8, ptr @H5D_init_g, align 1, !tbaa !3, !range !7
  %.pre9.i = load i8, ptr @H5_libterm_g, align 1, !range !7
  %.pre10.i = trunc nuw i8 %.pre.i to i1
  %.pre11.i = trunc nuw i8 %.pre9.i to i1
  br label %45

41:                                               ; preds = %38
  store i8 0, ptr @H5D_init_g, align 1, !tbaa !3
  %42 = load i64, ptr @H5E_FUNC_g, align 8, !tbaa !24
  %43 = load i64, ptr @H5E_CANTINIT_g, align 8, !tbaa !24
  %44 = tail call i32 (ptr, ptr, i32, i64, i64, ptr, ...) @H5E_printf_stack(ptr noundef nonnull @.str.1, ptr noundef nonnull @__func__.H5D_virtual_free_parsed_name, i32 noundef 1267, i64 noundef %42, i64 noundef %43, ptr noundef nonnull @.str.2) #14
  br label %H5D_virtual_free_parsed_name.exit

45:                                               ; preds = %._crit_edge.i, %32
  %.pre-phi12.i = phi i1 [ %.pre11.i, %._crit_edge.i ], [ %36, %32 ]
  %.pre-phi.i = phi i1 [ %.pre10.i, %._crit_edge.i ], [ %34, %32 ]
  %46 = xor i1 %.pre-phi12.i, true
  %47 = select i1 %.pre-phi.i, i1 true, i1 %46
  br i1 %47, label %.preheader.i, label %H5D_virtual_free_parsed_name.exit, !prof !144

.preheader.i:                                     ; preds = %45, %.preheader.i
  %.07.i = phi ptr [ %51, %.preheader.i ], [ %.0..0..0..0.13.pr, %45 ]
  %48 = load ptr, ptr %.07.i, align 8, !tbaa !132
  %49 = tail call ptr @H5MM_xfree(ptr noundef %48) #14
  %50 = getelementptr inbounds nuw i8, ptr %.07.i, i64 8
  %51 = load ptr, ptr %50, align 8, !tbaa !142
  %52 = tail call ptr @H5FL_reg_free(ptr noundef nonnull @H5_H5O_storage_virtual_name_seg_t_reg_free_list, ptr noundef nonnull %.07.i) #14
  %.old1.not.i = icmp eq ptr %51, null
  br i1 %.old1.not.i, label %H5D_virtual_free_parsed_name.exit, label %.preheader.i

H5D_virtual_free_parsed_name.exit:                ; preds = %.preheader.i, %45, %41, %.thread, %31, %2
  %.0 = phi i32 [ -1, %31 ], [ 0, %2 ], [ 0, %.thread ], [ -1, %41 ], [ -1, %45 ], [ -1, %.preheader.i ]
  call void @llvm.lifetime.end.p0(i64 8, ptr nonnull %3)
  ret i32 %.0
}